; Function Attrs: nounwind uwtable
define ptr @l_Lake_buildLeanExe(ptr noundef %0, ptr noundef %1, ptr noundef %2, ptr noundef %3, ptr noundef %4, i8 noundef zeroext %5, ptr noundef %6, ptr noundef %7, ptr noundef %8, ptr noundef %9, ptr noundef %10, ptr noundef %11) local_unnamed_addr #0 {
  %13 = load ptr, ptr @l_Lake_buildSharedLib___closed__1, align 8, !tbaa !9
  %14 = tail call ptr @l_Lake_Job_collectArray___rarg(ptr noundef %1, ptr noundef %13) #5
  tail call void @lean_inc_heartbeat() #5
  %15 = tail call noalias ptr @mi_malloc_small(i64 noundef 64) #5
  %16 = icmp eq ptr %15, null
  br i1 %16, label %17, label %lean_alloc_closure.exit

17:                                               ; preds = %12
  tail call void @lean_internal_panic_out_of_memory() #6
  unreachable

lean_alloc_closure.exit:                          ; preds = %12
  %18 = zext i8 %5 to i64
  %19 = shl nuw nsw i64 %18, 1
  %20 = or disjoint i64 %19, 1
  %21 = inttoptr i64 %20 to ptr
  %22 = getelementptr inbounds nuw i8, ptr %15, i64 4
  store i32 1, ptr %15, align 4, !tbaa !4
  store i32 -184549312, ptr %22, align 4
  %23 = getelementptr inbounds nuw i8, ptr %15, i64 8
  store ptr @l_Lake_buildLeanExe___lambda__3___boxed, ptr %23, align 8, !tbaa !9
  %24 = getelementptr inbounds nuw i8, ptr %15, i64 16
  store i16 12, ptr %24, align 8, !tbaa !15
  %25 = getelementptr inbounds nuw i8, ptr %15, i64 18
  store i16 5, ptr %25, align 2, !tbaa !15
  %26 = getelementptr inbounds nuw i8, ptr %15, i64 24
  store ptr %2, ptr %26, align 8, !tbaa !9
  %27 = getelementptr inbounds nuw i8, ptr %15, i64 32
  store ptr %4, ptr %27, align 8, !tbaa !9
  %28 = getelementptr inbounds nuw i8, ptr %15, i64 40
  store ptr %3, ptr %28, align 8, !tbaa !9
  %29 = getelementptr inbounds nuw i8, ptr %15, i64 48
  store ptr %21, ptr %29, align 8, !tbaa !9
  %30 = getelementptr inbounds nuw i8, ptr %15, i64 56
  store ptr %0, ptr %30, align 8, !tbaa !9
  %31 = load ptr, ptr @l_Task_Priority_default, align 8, !tbaa !9
  %32 = tail call ptr @l_Lake_Job_bindM___at_Lake_buildLeanExe___spec__2(ptr noundef %14, ptr noundef nonnull %15, ptr noundef %31, i8 noundef zeroext 0, ptr noundef %6, ptr noundef %7, ptr noundef %8, ptr noundef %9, ptr noundef %10, ptr noundef %11)
  ret ptr %32
}